; Function Attrs: nounwind uwtable
define dso_local ptr @archive_entry_sourcepath_w(ptr noundef %0) local_unnamed_addr #0 {
  %2 = alloca ptr, align 8
  call void @llvm.lifetime.start.p0(i64 8, ptr nonnull %2) #21
  %3 = load ptr, ptr %0, align 8, !tbaa !25
  %4 = getelementptr inbounds nuw i8, ptr %0, i64 736
  %5 = call i32 @archive_mstring_get_wcs(ptr noundef %3, ptr noundef nonnull %4, ptr noundef nonnull %2) #21
  %6 = icmp eq i32 %5, 0
  %7 = load ptr, ptr %2, align 8
  %.0 = select i1 %6, ptr %7, ptr null
  call void @llvm.lifetime.end.p0(i64 8, ptr nonnull %2) #21
  ret ptr %.0
}